(dp0
S'GW'
p1
(dp2
S'jobbers'
p3
(dp4
S''
p5
(lp6
S'Holys'
p7
aS'Doer'
p8
aS'Ariele'
p9
aS'Notjeremy'
p10
aS'Ifairmaidenl'
p11
aS'Kurokami'
p12
aS'Juicy'
p13
aS'Swiftfeet'
p14
aS'Patchhoney'
p15
aS'Shalmon'
p16
aS'Eide'
p17
aS'Quickmaffs'
p18
aS'Jerseygirl'
p19
aS'Ape'
p20
aS'Jeremy'
p21
aS'Darkswede'
p22
aS'Jiexin'
p23
aS'Kh'
p24
aS'Lucifer'
p25
aS'Dankkush'
p26
asS'Versus Terminus'
p27
(lp28
S'Littupp'
p29
asS'Organized Crime'
p30
(lp31
S'Cptjsparrow'
p32
asS'Chaos'
p33
(lp34
S'Titan'
p35
aS'Ultimatium'
p36
aS'Darkbnavv'
p37
aS'Dannyboy'
p38
aS'Bluebone'
p39
aS'Binky'
p40
aS'Lando'
p41
asS'Nothing to Sea Here'
p42
(lp43
S'Cutiesasha'
p44
aS'Snaplie'
p45
asS"Lion's Bane"
p46
(lp47
S'Sonny'
p48
aS'Unca'
p49
aS'Leggy'
p50
aS'Virid'
p51
aS'Fulc'
p52
aS'Budclare'
p53
aS'Steinenberg'
p54
aS'Skiye'
p55
aS'Docson'
p56
aS'Baardje'
p57
aS'Noodler'
p58
aS'Ozgur'
p59
aS'Contra'
p60
aS'Ilbrutto'
p61
aS'Thijs'
p62
aS'Arcticwolf'
p63
aS'Ink'
p64
aS'Tesza'
p65
aS'Swordfighte'
p66
aS'Taskmaster'
p67
aS'Hidalgo'
p68
aS'Hisnitch'
p69
aS'Rinhart'
p70
aS'Lovelylass'
p71
aS'Smurfy'
p72
aS'Domminick'
p73
aS'Barbacafe'
p74
aS'Xaunder'
p75
aS'Bigsis'
p76
aS'Tnrebel'
p77
aS'Eviltoad'
p78
aS'Atlantisblue'
p79
aS'Gdhrt'
p80
aS'Plumazing'
p81
aS'Alddar'
p82
aS'Waffles'
p83
aS'Sheinord'
p84
aS'Angelakay'
p85
aS'Burntbowser'
p86
aS'Anil'
p87
aS'Thacovenant'
p88
aS'Candie'
p89
aS'Harmatan'
p90
aS'Pauseypaul'
p91
aS'Luciens'
p92
aS'Lizhisheng'
p93
aS'Silasw'
p94
aS'Blodhgarm'
p95
asS'Guerrilla Warfare'
p96
(lp97
S'Tonde'
p98
aS'Nikki'
p99
aS'Bolek'
p100
aS'Sallyy'
p101
aS'Todeshund'
p102
aS'Antix'
p103
aS'Brocky'
p104
aS'Whitetrash'
p105
aS'Shway'
p106
aS'Sonofantix'
p107
aS'Lyx'
p108
aS'Steinerghost'
p109
aS'Robbx'
p110
aS'Azole'
p111
aS'Apolo'
p112
aS'Fog'
p113
aS'Plank'
p114
aS'Boost'
p115
aS'Yellowmay'
p116
aS'Gandalf'
p117
aS'Ganon'
p118
aS'Memester'
p119
aS'Sapiosexual'
p120
aS'Hoogy'
p121
aS'Brammiejb'
p122
aS'Dragonzeyez'
p123
aS'Shaqlives'
p124
aS'Filthyjake'
p125
aS'Beary'
p126
aS'Wadeworld'
p127
aS'Littlekitten'
p128
aS'Mespa'
p129
aS'Ks'
p130
aS'Baconandweed'
p131
aS'Miley'
p132
aS'Gene'
p133
aS'Boinking'
p134
aS'Keladry'
p135
aS'Redrose'
p136
aS'Koba'
p137
aS'Jeffy'
p138
aS'Seerauber'
p139
aS'Regular'
p140
aS'Athios'
p141
aS'Raylazor'
p142
aS'Ffalenn'
p143
aS'Pasteyman'
p144
aS'Thurstee'
p145
aS'Cortina'
p146
aS'Jamaicanmana'
p147
asS"It's Not Personal"
p148
(lp149
S'Ppro'
p150
asS'Babylon'
p151
(lp152
S'Boohey'
p153
aS'Fourteen'
p154
asS'Illusion'
p155
(lp156
S'Momentary'
p157
aS'Boardy'
p158
asS'Going Down'
p159
(lp160
S'Dazeyinez'
p161
asS'Quid Pro Quo'
p162
(lp163
S'Ayani'
p164
asS'Open Paddock Nine'
p165
(lp166
S'Breadfish'
p167
aS'Nokosage'
p168
aS'Vivinica'
p169
aS'Bergious'
p170
aS'Balloffire'
p171
aS'Rappy'
p172
aS'Haylee'
p173
aS'Zargy'
p174
aS'Julias'
p175
aS'Zerris'
p176
aS'Essie'
p177
aS'Hullabaloo'
p178
asS'Fanatical Souls'
p179
(lp180
S'Swissymissy'
p181
aS'Gravee'
p182
asS'Veto'
p183
(lp184
S'Wallfish'
p185
aS'Whitewyvern'
p186
aS'Calamarie'
p187
aS'Brizo'
p188
aS'Starr'
p189
aS'Armless'
p190
aS'Phaerie'
p191
aS'Julie'
p192
aS'Oops'
p193
asS'Art of War'
p194
(lp195
S'Steveb'
p196
asS'Rum Fatboy Rum'
p197
(lp198
S'Smileysmiles'
p199
asS'Placeholder'
p200
(lp201
S'Terivergromp'
p202
aS'Experiment'
p203
aS'Wazoo'
p204
aS'Jeannemarie'
p205
asS'Primordial Powers'
p206
(lp207
S'Seapuff'
p208
aS'Julian'
p209
aS'Sublimus'
p210
asS'The Warriors'
p211
(lp212
S'Carsi'
p213
asS'Cannons To Fill'
p214
(lp215
S'Jikansai'
p216
aS'Eyesfcrimson'
p217
aS'Fission'
p218
aS'Legitstyle'
p219
asS'Civil Disobedience'
p220
(lp221
S'Empathetic'
p222
asS"Omalley's Marque"
p223
(lp224
S'Buzzybear'
p225
aS'Shaherazod'
p226
asS'Anchor Issues'
p227
(lp228
S'Padrino'
p229
aS'Pearlfist'
p230
aS'Spitterman'
p231
asS'Full of Ship'
p232
(lp233
S'Formido'
p234
aS'Fender'
p235
asS'Amateur Hour'
p236
(lp237
S'Hungryjack'
p238
aS'Namour'
p239
aS'Waves'
p240
aS'Billion'
p241
aS'Humble'
p242
aS'Shredgear'
p243
asS'Consider it Sunk'
p244
(lp245
S'Jimboz'
p246
aS'Vessel'
p247
aS'Formlessmask'
p248
aS'Elvasat'
p249
asS'Brenda'
p250
(lp251
S'Graniou'
p252
aS'Liilly'
p253
aS'Wiggin'
p254
aS'Leokegan'
p255
aS'Solitude'
p256
aS'Conjecture'
p257
aS'Enrico'
p258
aS'Juls'
p259
aS'Aureate'
p260
aS'Libertybella'
p261
aS'Leetage'
p262
aS'Riatablanca'
p263
aS'Croaker'
p264
aS'Tayes'
p265
aS'Blackratt'
p266
aS'Captnnemo'
p267
asS'Inglorious Fandango'
p268
(lp269
S'Mandie'
p270
asS'In Yer Dreams'
p271
(lp272
S'Boomshots'
p273
aS'Sen'
p274
asS'Keep the Peace'
p275
(lp276
S'Soleazy'
p277
aS'Kalesvane'
p278
aS'Geruzet'
p279
aS'Steelkilt'
p280
aS'Groporos'
p281
aS'Pillageppl'
p282
aS'Jellypants'
p283
aS'Wakanda'
p284
aS'Whiskeyjacks'
p285
aS'Detail'
p286
aS'Fappinerday'
p287
aS'Captainmarth'
p288
aS'Crazycat'
p289
aS'Deadcove'
p290
aS'Specialgirly'
p291
aS'Arietis'
p292
aS'Emac'
p293
aS'Leethetank'
p294
asS'Consequence Free'
p295
(lp296
S'Mask'
p297
asS'Independent Pirate'
p298
(lp299
S'Chantal'
p300
aS'Swarmz'
p301
aS'Imalioncub'
p302
aS'Derper'
p303
aS'Lugeba'
p304
aS'Lestes'
p305
aS'Konstantine'
p306
aS'Design'
p307
aS'Raindrop'
p308
aS'Cup'
p309
aS'Tangerine'
p310
aS'Unearthy'
p311
aS'Sassil'
p312
aS'Mockworld'
p313
aS'Seagullible'
p314
aS'Unkowndude'
p315
aS'Eledessil'
p316
aS'Leggomyeggo'
p317
aS'Maxumus'
p318
aS'Chonus'
p319
aS'Bless'
p320
assS'numbers'
p321
(dp322
g5
I20
sg27
I1
sg30
I1
sg33
I7
sg42
I2
sg46
I48
sg96
I50
sg148
I1
sg151
I2
sg155
I2
sg159
I1
sg162
I1
sg165
I12
sg179
I2
sg183
I9
sg194
I1
sg197
I1
sg200
I4
sg206
I3
sg211
I1
sg214
I4
sg220
I1
sg223
I2
sg227
I3
sg232
I2
sg236
I6
sg244
I4
sg250
I16
sg268
I1
sg271
I2
sg275
I18
sg295
I1
sg298
I21
sssS'CIS'
p323
(dp324
g3
(dp325
g5
(lp326
S'Scrunchie'
p327
aS'Sereph'
p328
aS'Broken'
p329
aS'Neoi'
p330
aS'Hipoot'
p331
aS'Jhummel'
p332
aS'Cmaster'
p333
aS'Sperum'
p334
aS'Emmarald'
p335
aS'Silverstache'
p336
aS'Miludy'
p337
aS'Sookie'
p338
asS'Chaos'
p339
(lp340
S'Remy'
p341
aS'Omaris'
p342
asS'Fresh and Bold'
p343
(lp344
S'Conflicter'
p345
asS'Fiore'
p346
(lp347
S'Hugoboss'
p348
asS'Guerrilla Warfare'
p349
(lp350
S'Mincho'
p351
asS'Zero Fox Given'
p352
(lp353
S'Mertz'
p354
asS'Amateur Hour'
p355
(lp356
S'Astoran'
p357
aS'Robosf'
p358
aS'Allusenth'
p359
aS'Romo'
p360
aS'Kushlorde'
p361
aS'Seventyone'
p362
aS'Vermiljoen'
p363
aS'Alerik'
p364
aS'Notjapp'
p365
aS'Daysire'
p366
aS'Seepnah'
p367
aS'Triplepat'
p368
aS'Mg'
p369
aS'Hellacious'
p370
aS'Deathbecomes'
p371
aS'Spacemonkey'
p372
aS'Legendu'
p373
aS'Pheonix'
p374
aS'Kaya'
p375
aS'Siobhana'
p376
aS'Kimyko'
p377
aS'Reda'
p378
aS'Wasa'
p379
aS'Xahmad'
p380
aS'Lolomokika'
p381
aS'Jessicahx'
p382
aS'Chalk'
p383
aS'Anchovia'
p384
aS'Solyma'
p385
asS'Illusion'
p386
(lp387
S'Blackiguana'
p388
aS'Hircin'
p389
aS'Cameron'
p390
aS'Luki'
p391
asS'Primordial Powers'
p392
(lp393
S'Darkcloud'
p394
aS'Garth'
p395
aS'Ree'
p396
aS'Ballsy'
p397
aS'Pewe'
p398
asS'Quid Pro Quo'
p399
(lp400
S'Hibabes'
p401
asS'Open Paddock Nine'
p402
(lp403
S'Western'
p404
aS'Penguinc'
p405
aS'Uglybernice'
p406
aS'Tifa'
p407
aS'Evolutions'
p408
asS'Fanatical Souls'
p409
(lp410
S'Henos'
p411
asS'The Wall'
p412
(lp413
S'Frontguy'
p414
asS'KDA'
p415
(lp416
S'Girlydk'
p417
aS'Wreckie'
p418
asS'Placeholder'
p419
(lp420
S'Legendar'
p421
aS'Baalch'
p422
asS'Organized Crime'
p423
(lp424
S'Technitium'
p425
asS'The Warriors'
p426
(lp427
S'Elvasatalt'
p428
asS'Cannons To Fill'
p429
(lp430
S'Ilovepuzzles'
p431
aS'Crystalclear'
p432
aS'Rodeb'
p433
asS'Moonlight Raiders'
p434
(lp435
S'Missyredd'
p436
aS'Fabiantje'
p437
aS'Qrud'
p438
aS'Icelocked'
p439
aS'Albinoninja'
p440
aS'Fizgig'
p441
aS'Iaago'
p442
aS'Bvlinder'
p443
aS'Pretending'
p444
aS'Kapekina'
p445
aS'Stargazy'
p446
aS'Sleatzy'
p447
aS'Holocene'
p448
aS'Yerpirate'
p449
asS"Omalley's Marque"
p450
(lp451
S'Georgiasky'
p452
asS'Dang I Love Foraging'
p453
(lp454
S'Udachi'
p455
aS'Ashleydawn'
p456
aS'Symbiotic'
p457
aS'Zac'
p458
aS'Lydia'
p459
aS'Mistake'
p460
aS'Madgrace'
p461
aS'Xelliana'
p462
asS'Anchor Issues'
p463
(lp464
S'Lola'
p465
aS'Proficient'
p466
aS'Bnavs'
p467
aS'Floorman'
p468
aS'Dwayne'
p469
aS'Canthar'
p470
aS'Guessimback'
p471
aS'Tatsu'
p472
aS'Dabigo'
p473
aS'Jubily'
p474
aS'Kimberly'
p475
asS'Nothing to Sea Here'
p476
(lp477
S'Lyon'
p478
aS'Haveanicenit'
p479
aS'Jakaubrey'
p480
aS'Avidia'
p481
aS'Becka'
p482
aS'Justmeds'
p483
aS'Btang'
p484
aS'Katnia'
p485
aS'Kristaa'
p486
aS'Blackfeed'
p487
aS'Shahn'
p488
aS'Vulture'
p489
aS'Bemine'
p490
aS'Absalom'
p491
aS'Perfecto'
p492
aS'Rockateer'
p493
aS'Remis'
p494
aS'Touchme'
p495
aS'Nefarious'
p496
aS'Malleus'
p497
aS'Carmely'
p498
asS'Consider it Sunk'
p499
(lp500
S'Toryis'
p501
aS'Brimstone'
p502
aS'Purplepearl'
p503
aS'Indy'
p504
aS'Patticake'
p505
aS'Jeanlafitte'
p506
aS'Brokenheartt'
p507
aS'Auranic'
p508
aS'Wisery'
p509
aS'Kjarvalr'
p510
aS'Blighty'
p511
aS'Enox'
p512
aS'Saltyswaby'
p513
aS'Aelain'
p514
aS'Bubbabee'
p515
aS'Puddle'
p516
aS'Sammie'
p517
aS'Nyssell'
p518
aS'Sweetpotato'
p519
aS'Havanna'
p520
aS'Ivinot'
p521
aS'Rucoon'
p522
aS'Draiid'
p523
aS'Jayc'
p524
aS'Smitey'
p525
aS'Saltypeps'
p526
aS'Elanor'
p527
aS'Nax'
p528
aS'Captholland'
p529
aS'Imathatguy'
p530
aS'Henryturner'
p531
aS'Chief'
p532
aS'Despair'
p533
aS'Extracool'
p534
aS'Quina'
p535
aS'Portho'
p536
asS'Brenda'
p537
(lp538
S'Truedeker'
p539
asS'Gloogle'
p540
(lp541
S'Rodrick'
p542
asS'In Yer Dreams'
p543
(lp544
S'Legionaer'
p545
asS'Elements of Fear'
p546
(lp547
S'Smartytarty'
p548
asS'Independent Pirate'
p549
(lp550
S'Nani'
p551
aS'Rumor'
p552
aS'Misadventure'
p553
aS'Sanitize'
p554
aS'Schlurp'
p555
aS'Aybabtu'
p556
aS'Xyresic'
p557
aS'Combo'
p558
aS'Denoven'
p559
aS'Poiznangel'
p560
aS'Watchship'
p561
aS'Tinkst'
p562
aS'Bush'
p563
aS'Challenger'
p564
aS'Mattack'
p565
aS'Certified'
p566
aS'Katjadeeyes'
p567
aS'Zolor'
p568
assg321
(dp569
g5
I12
sg339
I2
sg343
I1
sg346
I1
sg349
I1
sg352
I1
sg355
I29
sg386
I4
sg392
I5
sg399
I1
sg402
I5
sg409
I1
sg412
I1
sg415
I2
sg419
I2
sg423
I1
sg426
I1
sg429
I3
sg434
I14
sg450
I1
sg453
I8
sg463
I11
sg476
I21
sg499
I36
sg537
I1
sg540
I1
sg543
I1
sg546
I1
sg549
I18
sssS'BOTH'
p570
(dp571
g3
(dp572
g5
(lp573
S'Erased'
p574
aS'Miror'
p575
aS'Elrondian'
p576
aS'Oko'
p577
asS"Lion's Bane"
p578
(lp579
S'Jdp'
p580
asS'Amateur Hour'
p581
(lp582
S'Jas'
p583
aS'Kingindoe'
p584
aS'Dregs'
p585
aS'Diatom'
p586
aS'Capjack'
p587
aS'Korte'
p588
aS'Octavia'
p589
asS'Illusion'
p590
(lp591
S'Coasty'
p592
asS'Organized Crime'
p593
(lp594
S'Charles'
p595
aS'Jupiler'
p596
asS'Open Paddock Nine'
p597
(lp598
S'Westdraken'
p599
aS'Kaylahheart'
p600
asS'Fanatical Souls'
p601
(lp602
S'Aeville'
p603
asS'Placeholder'
p604
(lp605
S'Manuds'
p606
asS'Going Down'
p607
(lp608
S'Scavi'
p609
asS'Cannons To Fill'
p610
(lp611
S'Cobo'
p612
aS'Oneeyejoe'
p613
asS'Moonlight Raiders'
p614
(lp615
S'Tp'
p616
aS'Johnsnow'
p617
aS'Zanyx'
p618
aS'Teulisch'
p619
asS"Omalley's Marque"
p620
(lp621
S'Tarsius'
p622
asS'Anchor Issues'
p623
(lp624
S'Bshadow'
p625
asS'Nothing to Sea Here'
p626
(lp627
S'Darkfox'
p628
aS'Kava'
p629
asS'The Emissary'
p630
(lp631
S'Corenthio'
p632
asS'Cuppa Time'
p633
(lp634
S'Subhadra'
p635
asS'Primordial Powers'
p636
(lp637
S'Spyda'
p638
aS'Mattatron'
p639
aS'Natedawg'
p640
aS'Truegoerts'
p641
aS'Mochapete'
p642
aS'Takiastar'
p643
aS'Heavens'
p644
asS'Consider it Sunk'
p645
(lp646
S'Plumbien'
p647
aS'Devastator'
p648
aS'Tuah'
p649
aS'Noxiious'
p650
asS'Brenda'
p651
(lp652
S'Vikki'
p653
aS'Dulcanea'
p654
aS'Donkotee'
p655
aS'Alangalanga'
p656
asS'No Friggen Excuse'
p657
(lp658
S'Dolce'
p659
asS'Gloogle'
p660
(lp661
S'Lobao'
p662
asS'In Yer Dreams'
p663
(lp664
S'Lilith'
p665
aS'Ivy'
p666
asS'Keep the Peace'
p667
(lp668
S'Grafted'
p669
aS'Bigbadnudist'
p670
aS'Dangerdarlin'
p671
aS'Prose'
p672
asS'Independent Pirate'
p673
(lp674
S'Jamychal'
p675
aS'Underangelx'
p676
aS'Grjeg'
p677
aS'Sulululu'
p678
aS'Temujin'
p679
aS'Uglykidjake'
p680
aS'Sapaen'
p681
aS'Hillar'
p682
aS'Vuursgirl'
p683
aS'Rodanim'
p684
assg321
(dp685
g5
I4
sg578
I1
sg581
I7
sg590
I1
sg593
I2
sg597
I2
sg601
I1
sg604
I1
sg607
I1
sg610
I2
sg614
I4
sg620
I1
sg623
I1
sg626
I2
sg630
I1
sg633
I1
sg636
I7
sg645
I4
sg651
I4
sg657
I1
sg660
I1
sg663
I2
sg667
I4
sg673
I10
sss.